; Function Attrs: nounwind uwtable
define ptr @l_Std_Range_forIn_x27_loop___at___private_Lean_Elab_Inductive_0__Lean_Elab_Command_elabCtors_checkParamOccs___spec__2___boxed(ptr noundef %0, ptr noundef %1, ptr noundef %2, ptr noundef %3, ptr noundef %4, ptr noundef %5, ptr noundef readnone captures(none) %6, ptr noundef readnone captures(none) %7, ptr noundef %8, ptr noundef %9, ptr noundef %10, ptr noundef %11, ptr noundef %12, ptr noundef %13) local_unnamed_addr #0 {
  %15 = tail call ptr @l_Std_Range_forIn_x27_loop___at___private_Lean_Elab_Inductive_0__Lean_Elab_Command_elabCtors_checkParamOccs___spec__2(ptr noundef %0, ptr noundef %1, ptr poison, ptr noundef %3, ptr noundef %4, ptr noundef %5, ptr poison, ptr poison, ptr noundef %8, ptr noundef %9, ptr noundef %10, ptr noundef %11, ptr noundef %12, ptr noundef %13)
  %16 = ptrtoint ptr %3 to i64
  %17 = and i64 %16, 1
  %.not = icmp eq i64 %17, 0
  br i1 %.not, label %18, label %lean_dec.exit19

18:                                               ; preds = %14
  %19 = load i32, ptr %3, align 4, !tbaa !4
  %20 = icmp sgt i32 %19, 1
  br i1 %20, label %21, label %23, !prof !9

21:                                               ; preds = %18
  %22 = add nsw i32 %19, -1
  store i32 %22, ptr %3, align 4, !tbaa !4
  br label %lean_dec.exit19

23:                                               ; preds = %18
  %.not.i = icmp eq i32 %19, 0
  br i1 %.not.i, label %lean_dec.exit19, label %24

24:                                               ; preds = %23
  tail call void @lean_dec_ref_cold(ptr noundef nonnull %3) #6
  br label %lean_dec.exit19

lean_dec.exit19:                                  ; preds = %24, %23, %21, %14
  %25 = ptrtoint ptr %2 to i64
  %26 = and i64 %25, 1
  %.not24 = icmp eq i64 %26, 0
  br i1 %.not24, label %27, label %lean_dec.exit18

27:                                               ; preds = %lean_dec.exit19
  %28 = load i32, ptr %2, align 4, !tbaa !4
  %29 = icmp sgt i32 %28, 1
  br i1 %29, label %30, label %32, !prof !9

30:                                               ; preds = %27
  %31 = add nsw i32 %28, -1
  store i32 %31, ptr %2, align 4, !tbaa !4
  br label %lean_dec.exit18

32:                                               ; preds = %27
  %.not.i20 = icmp eq i32 %28, 0
  br i1 %.not.i20, label %lean_dec.exit18, label %33

33:                                               ; preds = %32
  tail call void @lean_dec_ref_cold(ptr noundef nonnull %2) #6
  br label %lean_dec.exit18

lean_dec.exit18:                                  ; preds = %33, %32, %30, %lean_dec.exit19
  %34 = ptrtoint ptr %0 to i64
  %35 = and i64 %34, 1
  %.not25 = icmp eq i64 %35, 0
  br i1 %.not25, label %36, label %lean_dec.exit

36:                                               ; preds = %lean_dec.exit18
  %37 = load i32, ptr %0, align 4, !tbaa !4
  %38 = icmp sgt i32 %37, 1
  br i1 %38, label %39, label %41, !prof !9

39:                                               ; preds = %36
  %40 = add nsw i32 %37, -1
  store i32 %40, ptr %0, align 4, !tbaa !4
  br label %lean_dec.exit

41:                                               ; preds = %36
  %.not.i22 = icmp eq i32 %37, 0
  br i1 %.not.i22, label %lean_dec.exit, label %42

42:                                               ; preds = %41
  tail call void @lean_dec_ref_cold(ptr noundef nonnull %0) #6
  br label %lean_dec.exit

lean_dec.exit:                                    ; preds = %42, %41, %39, %lean_dec.exit18
  ret ptr %15
}